; Function Attrs: inlinehint mustprogress nounwind uwtable
define internal void @"_ZN7testing8internal15ResultOfMatcherIZN4absl12log_internal10TextPrefixERKNS_7MatcherISt17basic_string_viewIcSt11char_traitsIcEEEEE3$_0S9_E4ImplIRKNS2_8LogEntryEED0Ev"(ptr noundef nonnull align 8 dereferenceable(72) initializes((0, 8), (48, 56)) %0) unnamed_addr #9 align 2 personality ptr @__gxx_personality_v0 {
  store ptr getelementptr inbounds nuw inrange(-16, 40) (i8, ptr @"_ZTVN7testing8internal15ResultOfMatcherIZN4absl12log_internal10TextPrefixERKNS_7MatcherISt17basic_string_viewIcSt11char_traitsIcEEEEE3$_0S9_E4ImplIRKNS2_8LogEntryEEE", i64 16), ptr %0, align 8, !tbaa !4
  %2 = getelementptr inbounds nuw i8, ptr %0, i64 48
  store ptr getelementptr inbounds nuw inrange(-16, 32) (i8, ptr @_ZTVN7testing8internal11MatcherBaseISt17basic_string_viewIcSt11char_traitsIcEEEE, i64 16), ptr %2, align 8, !tbaa !4
  %3 = getelementptr inbounds nuw i8, ptr %0, i64 56
  %4 = load ptr, ptr %3, align 8, !tbaa !19
  %.not.i.i.i.i = icmp eq ptr %4, null
  br i1 %.not.i.i.i.i, label %_ZN7testing8internal11MatcherBaseISt17basic_string_viewIcSt11char_traitsIcEEED2Ev.exit.i, label %_ZNK7testing8internal11MatcherBaseISt17basic_string_viewIcSt11char_traitsIcEEE8IsSharedEv.exit.i.i.i

_ZNK7testing8internal11MatcherBaseISt17basic_string_viewIcSt11char_traitsIcEEE8IsSharedEv.exit.i.i.i: ; preds = %1
  %5 = getelementptr inbounds nuw i8, ptr %4, i64 24
  %6 = load ptr, ptr %5, align 8, !tbaa !46
  %.not.i.i.i = icmp eq ptr %6, null
  br i1 %.not.i.i.i, label %_ZN7testing8internal11MatcherBaseISt17basic_string_viewIcSt11char_traitsIcEEED2Ev.exit.i, label %7

7:                                                ; preds = %_ZNK7testing8internal11MatcherBaseISt17basic_string_viewIcSt11char_traitsIcEEE8IsSharedEv.exit.i.i.i
  %8 = getelementptr inbounds nuw i8, ptr %0, i64 64
  %9 = load ptr, ptr %8, align 8, !tbaa !13
  %10 = atomicrmw sub ptr %9, i32 1 acq_rel, align 4
  %11 = icmp eq i32 %10, 1
  br i1 %11, label %12, label %_ZN7testing8internal11MatcherBaseISt17basic_string_viewIcSt11char_traitsIcEEED2Ev.exit.i

12:                                               ; preds = %7
  %13 = load ptr, ptr %3, align 8, !tbaa !19
  %14 = getelementptr inbounds nuw i8, ptr %13, i64 24
  %15 = load ptr, ptr %14, align 8, !tbaa !46
  %16 = load ptr, ptr %8, align 8, !tbaa !13
  invoke void %15(ptr noundef %16)
          to label %_ZN7testing8internal11MatcherBaseISt17basic_string_viewIcSt11char_traitsIcEEED2Ev.exit.i unwind label %17

17:                                               ; preds = %12
  %18 = landingpad { ptr, i32 }
          catch ptr null
  %19 = extractvalue { ptr, i32 } %18, 0
  tail call void @__clang_call_terminate(ptr %19) #27
  unreachable

_ZN7testing8internal11MatcherBaseISt17basic_string_viewIcSt11char_traitsIcEEED2Ev.exit.i: ; preds = %12, %7, %_ZNK7testing8internal11MatcherBaseISt17basic_string_viewIcSt11char_traitsIcEEE8IsSharedEv.exit.i.i.i, %1
  %20 = getelementptr inbounds nuw i8, ptr %0, i64 8
  %21 = load ptr, ptr %20, align 8, !tbaa !33
  %22 = getelementptr inbounds nuw i8, ptr %0, i64 24
  %23 = icmp eq ptr %21, %22
  br i1 %23, label %_ZNKSt7__cxx1112basic_stringIcSt11char_traitsIcESaIcEE11_M_is_localEv.exit.thread.i.i.i, label %_ZNKSt7__cxx1112basic_stringIcSt11char_traitsIcESaIcEE11_M_is_localEv.exit.i.i.i

_ZNKSt7__cxx1112basic_stringIcSt11char_traitsIcESaIcEE11_M_is_localEv.exit.thread.i.i.i: ; preds = %_ZN7testing8internal11MatcherBaseISt17basic_string_viewIcSt11char_traitsIcEEED2Ev.exit.i
  %24 = getelementptr inbounds nuw i8, ptr %0, i64 16
  %25 = load i64, ptr %24, align 8, !tbaa !30
  %26 = icmp ult i64 %25, 16
  tail call void @llvm.assume(i1 %26)
  br label %"_ZN7testing8internal15ResultOfMatcherIZN4absl12log_internal10TextPrefixERKNS_7MatcherISt17basic_string_viewIcSt11char_traitsIcEEEEE3$_0S9_E4ImplIRKNS2_8LogEntryEED2Ev.exit"

_ZNKSt7__cxx1112basic_stringIcSt11char_traitsIcESaIcEE11_M_is_localEv.exit.i.i.i: ; preds = %_ZN7testing8internal11MatcherBaseISt17basic_string_viewIcSt11char_traitsIcEEED2Ev.exit.i
  %27 = load i64, ptr %22, align 8, !tbaa !13
  %28 = add i64 %27, 1
  tail call void @_ZdlPvm(ptr noundef %21, i64 noundef %28) #26
  br label %"_ZN7testing8internal15ResultOfMatcherIZN4absl12log_internal10TextPrefixERKNS_7MatcherISt17basic_string_viewIcSt11char_traitsIcEEEEE3$_0S9_E4ImplIRKNS2_8LogEntryEED2Ev.exit"

"_ZN7testing8internal15ResultOfMatcherIZN4absl12log_internal10TextPrefixERKNS_7MatcherISt17basic_string_viewIcSt11char_traitsIcEEEEE3$_0S9_E4ImplIRKNS2_8LogEntryEED2Ev.exit": ; preds = %_ZNKSt7__cxx1112basic_stringIcSt11char_traitsIcESaIcEE11_M_is_localEv.exit.thread.i.i.i, %_ZNKSt7__cxx1112basic_stringIcSt11char_traitsIcESaIcEE11_M_is_localEv.exit.i.i.i
  tail call void @_ZdlPvm(ptr noundef nonnull %0, i64 noundef 72) #26
  ret void
}